target datalayout = "e-m:e-p270:32:32-p271:32:32-p272:64:64-i64:64-i128:128-f80:128-n8:16:32:64-S128"
target triple = "x86_64-pc-linux-gnu"

%struct.ssl_st = type { i32, ptr, ptr, ptr, %struct.CRYPTO_REF_COUNT, ptr, %struct.crypto_ex_data_st }
%struct.CRYPTO_REF_COUNT = type { i32 }
%struct.crypto_ex_data_st = type { ptr, ptr }
%struct.ssl_connection_st = type { %struct.ssl_st, ptr, i32, ptr, ptr, ptr, i32, ptr, i32, i32, i32, i32, %struct.OSSL_TIME, %struct.OSSL_TIME, %struct.ossl_statem_st, i32, ptr, ptr, i64, i64, i64, %struct.ossl_quic_tls_callbacks_st, ptr, ptr, %struct.anon, ptr, ptr, ptr, i32, ptr, %struct.ssl_dane_st, ptr, ptr, ptr, ptr, i32, [64 x i8], [64 x i8], [64 x i8], [64 x i8], [64 x i8], [64 x i8], [64 x i8], [64 x i8], [64 x i8], [64 x i8], [64 x i8], [64 x i8], ptr, [64 x i8], i64, i32, i64, [32 x i8], ptr, ptr, ptr, i64, ptr, [32 x i8], i64, i32, ptr, ptr, i32, i32, ptr, ptr, ptr, ptr, ptr, i64, ptr, ptr, i64, i32, i32, i32, i64, i32, i32, i64, i64, i64, %struct.anon.1, ptr, i32, ptr, ptr, ptr, i32, ptr, ptr, ptr, i32, i32, i32, i32, ptr, i64, i32, ptr, %struct.srp_ctx_st, ptr, %struct.record_layer_st, ptr, ptr, ptr, ptr, i64, i32, i32, i32, i64, i64, i64, ptr, ptr, ptr, ptr, ptr, i64, ptr, i64, ptr, i64 }
%struct.OSSL_TIME = type { i64 }
%struct.ossl_statem_st = type { i32, i32, i32, i32, i32, i32, i32, i32, i32, i32, i32, i32, i32, ptr, ptr, ptr, i8 }
%struct.ossl_quic_tls_callbacks_st = type { ptr, ptr, ptr, ptr, ptr, ptr }
%struct.anon = type { i64, [32 x i8], [32 x i8], ptr, ptr, i32, i32, i32, i32, [2 x i8], i32, i32, i32, i32, %struct.anon.0, [64 x i8], i64, [64 x i8], i64, i32, i32, ptr, i64, ptr, i64, i32, i8, i8, i16, ptr, i16 }
%struct.anon.0 = type { [128 x i8], i64, [128 x i8], i64, i64, i32, ptr, ptr, [4 x ptr], [4 x i16], i64, i32, ptr, i64, ptr, i64, ptr, ptr, ptr, i32, i64, ptr, i32, ptr, i64, ptr, i64, ptr, i64, ptr, ptr, ptr, ptr, i64, i64, ptr, ptr, i32, i32, i32, i32 }
%struct.ssl_dane_st = type { ptr, ptr, ptr, ptr, ptr, i32, i32, i32, i64 }
%struct.anon.1 = type { [29 x i8], ptr, ptr, ptr, i32, ptr, i16, i32, %struct.anon.2, i32, i32, i64, ptr, i64, ptr, i64, ptr, i64, ptr, i64, ptr, i64, ptr, ptr, ptr, ptr, ptr, ptr, ptr, i64, ptr, i64, i32, i32, i32, i32, ptr, i64, i32, i8, i32, [4 x i32], i32, i8, i8, i8, i8 }
%struct.anon.2 = type { ptr, ptr, ptr, i64 }
%struct.srp_ctx_st = type { ptr, ptr, ptr, ptr, ptr, ptr, ptr, ptr, ptr, ptr, ptr, ptr, ptr, ptr, i32, i64 }
%struct.record_layer_st = type { ptr, ptr, ptr, ptr, ptr, ptr, ptr, ptr, i64, i32, i64, [4 x i8], i64, i64, i8, ptr, i32, ptr, ptr, ptr, i64, i64, i64, i64, [32 x %struct.tls_record_st] }
%struct.tls_record_st = type { ptr, i32, i8, ptr, ptr, i64, i64, i16, [8 x i8] }
%struct.buf_mem_st = type { i64, ptr, i64, i64 }

; Function Attrs: nounwind uwtable
define i32 @create_synthetic_message_hash(ptr noundef %0, ptr noundef %1, i64 noundef %2, ptr noundef %3, i64 noundef %4) #0 {
  %6 = alloca i32, align 4
  %7 = alloca ptr, align 8
  %8 = alloca ptr, align 8
  %9 = alloca i64, align 8
  %10 = alloca ptr, align 8
  %11 = alloca i64, align 8
  %12 = alloca [64 x i8], align 16
  %13 = alloca [4 x i8], align 1
  %14 = alloca i32, align 4
  store ptr %0, ptr %7, align 8, !tbaa !18
  store ptr %1, ptr %8, align 8, !tbaa !82
  store i64 %2, ptr %9, align 8, !tbaa !76
  store ptr %3, ptr %10, align 8, !tbaa !82
  store i64 %4, ptr %11, align 8, !tbaa !76
  call void @llvm.lifetime.start.p0(i64 64, ptr %12) #9
  call void @llvm.lifetime.start.p0(i64 4, ptr %13) #9
  %15 = getelementptr inbounds [4 x i8], ptr %13, i64 0, i64 0
  call void @llvm.memset.p0.i64(ptr align 1 %15, i8 0, i64 4, i1 false)
  %16 = load ptr, ptr %8, align 8, !tbaa !82
  %17 = icmp eq ptr %16, null
  br i1 %17, label %18, label %30

18:                                               ; preds = %5
  %19 = getelementptr inbounds [64 x i8], ptr %12, i64 0, i64 0
  store ptr %19, ptr %8, align 8, !tbaa !82
  store i64 0, ptr %9, align 8, !tbaa !76
  %20 = load ptr, ptr %7, align 8, !tbaa !18
  %21 = call i32 @ssl3_digest_cached_records(ptr noundef %20, i32 noundef 0)
  %22 = icmp ne i32 %21, 0
  br i1 %22, label %23, label %28

23:                                               ; preds = %18
  %24 = load ptr, ptr %7, align 8, !tbaa !18
  %25 = getelementptr inbounds [64 x i8], ptr %12, i64 0, i64 0
  %26 = call i32 @ssl_handshake_hash(ptr noundef %24, ptr noundef %25, i64 noundef 64, ptr noundef %9)
  %27 = icmp ne i32 %26, 0
  br i1 %27, label %29, label %28

28:                                               ; preds = %23, %18
  store i32 0, ptr %6, align 4
  store i32 1, ptr %14, align 4
  br label %77

29:                                               ; preds = %23
  br label %30

30:                                               ; preds = %29, %5
  %31 = load ptr, ptr %7, align 8, !tbaa !18
  %32 = call i32 @ssl3_init_finished_mac(ptr noundef %31)
  %33 = icmp ne i32 %32, 0
  br i1 %33, label %35, label %34

34:                                               ; preds = %30
  store i32 0, ptr %6, align 4
  store i32 1, ptr %14, align 4
  br label %77

35:                                               ; preds = %30
  %36 = getelementptr inbounds [4 x i8], ptr %13, i64 0, i64 0
  store i8 -2, ptr %36, align 1, !tbaa !75
  %37 = load i64, ptr %9, align 8, !tbaa !76
  %38 = trunc i64 %37 to i8
  %39 = getelementptr inbounds [4 x i8], ptr %13, i64 0, i64 3
  store i8 %38, ptr %39, align 1, !tbaa !75
  %40 = load ptr, ptr %7, align 8, !tbaa !18
  %41 = getelementptr inbounds [4 x i8], ptr %13, i64 0, i64 0
  %42 = call i32 @ssl3_finish_mac(ptr noundef %40, ptr noundef %41, i64 noundef 4)
  %43 = icmp ne i32 %42, 0
  br i1 %43, label %44, label %50

44:                                               ; preds = %35
  %45 = load ptr, ptr %7, align 8, !tbaa !18
  %46 = load ptr, ptr %8, align 8, !tbaa !82
  %47 = load i64, ptr %9, align 8, !tbaa !76
  %48 = call i32 @ssl3_finish_mac(ptr noundef %45, ptr noundef %46, i64 noundef %47)
  %49 = icmp ne i32 %48, 0
  br i1 %49, label %51, label %50

50:                                               ; preds = %44, %35
  store i32 0, ptr %6, align 4
  store i32 1, ptr %14, align 4
  br label %77

51:                                               ; preds = %44
  %52 = load ptr, ptr %10, align 8, !tbaa !82
  %53 = icmp ne ptr %52, null
  br i1 %53, label %54, label %76

54:                                               ; preds = %51
  %55 = load ptr, ptr %7, align 8, !tbaa !18
  %56 = load ptr, ptr %10, align 8, !tbaa !82
  %57 = load i64, ptr %11, align 8, !tbaa !76
  %58 = call i32 @ssl3_finish_mac(ptr noundef %55, ptr noundef %56, i64 noundef %57)
  %59 = icmp ne i32 %58, 0
  br i1 %59, label %60, label %75

60:                                               ; preds = %54
  %61 = load ptr, ptr %7, align 8, !tbaa !18
  %62 = load ptr, ptr %7, align 8, !tbaa !18
  %63 = getelementptr inbounds nuw %struct.ssl_connection_st, ptr %62, i32 0, i32 16
  %64 = load ptr, ptr %63, align 8, !tbaa !79
  %65 = getelementptr inbounds nuw %struct.buf_mem_st, ptr %64, i32 0, i32 1
  %66 = load ptr, ptr %65, align 8, !tbaa !80
  %67 = load ptr, ptr %7, align 8, !tbaa !18
  %68 = getelementptr inbounds nuw %struct.ssl_connection_st, ptr %67, i32 0, i32 24
  %69 = getelementptr inbounds nuw %struct.anon, ptr %68, i32 0, i32 14
  %70 = getelementptr inbounds nuw %struct.anon.0, ptr %69, i32 0, i32 4
  %71 = load i64, ptr %70, align 8, !tbaa !237
  %72 = add i64 %71, 4
  %73 = call i32 @ssl3_finish_mac(ptr noundef %61, ptr noundef %66, i64 noundef %72)
  %74 = icmp ne i32 %73, 0
  br i1 %74, label %76, label %75

75:                                               ; preds = %60, %54
  store i32 0, ptr %6, align 4
  store i32 1, ptr %14, align 4
  br label %77

76:                                               ; preds = %60, %51
  store i32 1, ptr %6, align 4
  store i32 1, ptr %14, align 4
  br label %77

77:                                               ; preds = %76, %75, %50, %34, %28
  call void @llvm.lifetime.end.p0(i64 4, ptr %13) #9
  call void @llvm.lifetime.end.p0(i64 64, ptr %12) #9
  %78 = load i32, ptr %6, align 4
  ret i32 %78
}