; Function Attrs: nounwind uwtable
define range(i32 0, 2) i32 @create_synthetic_message_hash(ptr noundef %0, ptr noundef %1, i64 noundef %2, ptr noundef %3, i64 noundef %4) local_unnamed_addr #0 {
  %6 = alloca i64, align 8
  %7 = alloca [64 x i8], align 16
  %8 = alloca [4 x i8], align 4
  store i64 %2, ptr %6, align 8, !tbaa !72
  call void @llvm.lifetime.start.p0(i64 64, ptr nonnull %7) #11
  call void @llvm.lifetime.start.p0(i64 4, ptr nonnull %8) #11
  store i32 254, ptr %8, align 4
  %9 = icmp eq ptr %1, null
  br i1 %9, label %10, label %14

10:                                               ; preds = %5
  store i64 0, ptr %6, align 8, !tbaa !72
  %11 = tail call i32 @ssl3_digest_cached_records(ptr noundef %0, i32 noundef 0) #11
  %.not = icmp eq i32 %11, 0
  br i1 %.not, label %37, label %12

12:                                               ; preds = %10
  %13 = call i32 @ssl_handshake_hash(ptr noundef %0, ptr noundef nonnull %7, i64 noundef 64, ptr noundef nonnull %6) #11
  %.not17 = icmp eq i32 %13, 0
  br i1 %.not17, label %37, label %14

14:                                               ; preds = %12, %5
  %.014 = phi ptr [ %7, %12 ], [ %1, %5 ]
  %15 = call i32 @ssl3_init_finished_mac(ptr noundef %0) #11
  %.not18 = icmp eq i32 %15, 0
  br i1 %.not18, label %37, label %16

16:                                               ; preds = %14
  %17 = load i64, ptr %6, align 8, !tbaa !72
  %18 = trunc i64 %17 to i8
  %19 = getelementptr inbounds nuw i8, ptr %8, i64 3
  store i8 %18, ptr %19, align 1, !tbaa !148
  %20 = call i32 @ssl3_finish_mac(ptr noundef %0, ptr noundef nonnull %8, i64 noundef 4) #11
  %.not19 = icmp eq i32 %20, 0
  br i1 %.not19, label %37, label %21

21:                                               ; preds = %16
  %22 = load i64, ptr %6, align 8, !tbaa !72
  %23 = call i32 @ssl3_finish_mac(ptr noundef %0, ptr noundef nonnull %.014, i64 noundef %22) #11
  %.not20 = icmp eq i32 %23, 0
  br i1 %.not20, label %37, label %24

24:                                               ; preds = %21
  %.not21 = icmp eq ptr %3, null
  br i1 %.not21, label %36, label %25

25:                                               ; preds = %24
  %26 = call i32 @ssl3_finish_mac(ptr noundef %0, ptr noundef nonnull %3, i64 noundef %4) #11
  %.not22 = icmp eq i32 %26, 0
  br i1 %.not22, label %37, label %27

27:                                               ; preds = %25
  %28 = getelementptr inbounds nuw i8, ptr %0, i64 248
  %29 = load ptr, ptr %28, align 8, !tbaa !75
  %30 = getelementptr inbounds nuw i8, ptr %29, i64 8
  %31 = load ptr, ptr %30, align 8, !tbaa !76
  %32 = getelementptr inbounds nuw i8, ptr %0, i64 752
  %33 = load i64, ptr %32, align 8, !tbaa !204
  %34 = add i64 %33, 4
  %35 = call i32 @ssl3_finish_mac(ptr noundef %0, ptr noundef %31, i64 noundef %34) #11
  %.not23 = icmp eq i32 %35, 0
  br i1 %.not23, label %37, label %36

36:                                               ; preds = %27, %24
  br label %37

37:                                               ; preds = %25, %27, %16, %21, %14, %10, %12, %36
  %.0 = phi i32 [ 1, %36 ], [ 0, %12 ], [ 0, %10 ], [ 0, %14 ], [ 0, %21 ], [ 0, %16 ], [ 0, %27 ], [ 0, %25 ]
  call void @llvm.lifetime.end.p0(i64 4, ptr nonnull %8) #11
  call void @llvm.lifetime.end.p0(i64 64, ptr nonnull %7) #11
  ret i32 %.0
}